target datalayout = "e-m:e-p270:32:32-p271:32:32-p272:64:64-i64:64-i128:128-f80:128-n8:16:32:64-S128"
target triple = "x86_64-pc-linux-gnu"

%struct.Abc_Frame_t_ = type { ptr, ptr, ptr, ptr, ptr, ptr, ptr, ptr, ptr, ptr, i32, i32, i32, i32, i32, ptr, float, float, i32, i32, ptr, ptr, ptr, double, double, ptr, ptr, ptr, ptr, ptr, ptr, ptr, ptr, ptr, ptr, ptr, ptr, float, ptr, i32, ptr, ptr, ptr, ptr, ptr, i32, i32, i32, i32, i32, i32, ptr, ptr, ptr, ptr, ptr, ptr, i32, i32, ptr, ptr, ptr, ptr, ptr, ptr, ptr, ptr, ptr, ptr, ptr, ptr, ptr, ptr, ptr, ptr, ptr, ptr, ptr, ptr, ptr, ptr, ptr, ptr, ptr, ptr, ptr, ptr, ptr, ptr }
%struct.Wlc_Par_t_ = type { i32, i32, i32, i32, i32, i32, i32, i32, i32, i32, i32, i32, i32, i32, i32, i32, i32, i32, i32, i32, i32, i32, i32, ptr }

@globalUtilOptind = external global i32, align 4
@.str.41 = private unnamed_addr constant [4 x i8] c"yes\00", align 1
@.str.42 = private unnamed_addr constant [3 x i8] c"no\00", align 1
@.str.45 = private unnamed_addr constant [62 x i8] c"\09-v     : toggle printing verbose information [default = %s]\0A\00", align 1
@.str.46 = private unnamed_addr constant [35 x i8] c"\09-h     : print the command usage\0A\00", align 1
@.str.72 = private unnamed_addr constant [48 x i8] c"Abc_CommandCone(): There is no current design.\0A\00", align 1
@.str.84 = private unnamed_addr constant [60 x i8] c"Command line switch \22-A\22 should be followed by an integer.\0A\00", align 1
@.str.85 = private unnamed_addr constant [60 x i8] c"Command line switch \22-M\22 should be followed by an integer.\0A\00", align 1
@.str.86 = private unnamed_addr constant [60 x i8] c"Command line switch \22-X\22 should be followed by an integer.\0A\00", align 1
@.str.87 = private unnamed_addr constant [60 x i8] c"Command line switch \22-F\22 should be followed by an integer.\0A\00", align 1
@.str.88 = private unnamed_addr constant [60 x i8] c"Command line switch \22-I\22 should be followed by an integer.\0A\00", align 1
@.str.91 = private unnamed_addr constant [47 x i8] c"\09         abstraction for word-level networks\0A\00", align 1
@.str.92 = private unnamed_addr constant [79 x i8] c"\09-A num : minimum bit-width of an adder/subtractor to abstract [default = %d]\0A\00", align 1
@.str.93 = private unnamed_addr constant [72 x i8] c"\09-M num : minimum bit-width of a multiplier to abstract [default = %d]\0A\00", align 1
@.str.94 = private unnamed_addr constant [74 x i8] c"\09-X num : minimum bit-width of a MUX operator to abstract [default = %d]\0A\00", align 1
@.str.95 = private unnamed_addr constant [71 x i8] c"\09-F num : minimum bit-width of a flip-flop to abstract [default = %d]\0A\00", align 1
@.str.96 = private unnamed_addr constant [61 x i8] c"\09-I num : maximum number of CEGAR iterations [default = %d]\0A\00", align 1
@.str.98 = private unnamed_addr constant [68 x i8] c"\09-x     : toggle XORing outputs of word-level miter [default = %s]\0A\00", align 1
@.str.112 = private unnamed_addr constant [61 x i8] c"\09-w     : toggle printing verbose PDR output [default = %s]\0A\00", align 1
@.str.115 = private unnamed_addr constant [10 x i8] c"AMXFIxvwh\00", align 1
@.str.116 = private unnamed_addr constant [36 x i8] c"usage: %%abs2 [-AMXFI num] [-xvwh]\0A\00", align 1

; Function Attrs: inlinehint nounwind willreturn memory(read) uwtable
define available_externally i32 @atoi(ptr noundef nonnull %0) #8 {
  %2 = alloca ptr, align 8
  store ptr %0, ptr %2, align 8, !tbaa !14
  %3 = load ptr, ptr %2, align 8, !tbaa !14
  %4 = call i64 @strtol(ptr noundef %3, ptr noundef null, i32 noundef 10) #12
  %5 = trunc i64 %4 to i32
  ret i32 %5
}

; Function Attrs: inlinehint nounwind uwtable
define internal ptr @Wlc_AbcGetNtk(ptr noundef %0) #2 {
  %2 = alloca ptr, align 8
  store ptr %0, ptr %2, align 8, !tbaa !3
  %3 = load ptr, ptr %2, align 8, !tbaa !3
  %4 = getelementptr inbounds nuw %struct.Abc_Frame_t_, ptr %3, i32 0, i32 71
  %5 = load ptr, ptr %4, align 8, !tbaa !132
  ret ptr %5
}

; Function Attrs: nounwind uwtable
define internal i32 @Abc_CommandAbs2(ptr noundef %0, i32 noundef %1, ptr noundef %2) #0 {
  %4 = alloca i32, align 4
  %5 = alloca ptr, align 8
  %6 = alloca i32, align 4
  %7 = alloca ptr, align 8
  %8 = alloca ptr, align 8
  %9 = alloca %struct.Wlc_Par_t_, align 8
  %10 = alloca ptr, align 8
  %11 = alloca i32, align 4
  %12 = alloca i32, align 4
  store ptr %0, ptr %5, align 8, !tbaa !3
  store i32 %1, ptr %6, align 4, !tbaa !8
  store ptr %2, ptr %7, align 8, !tbaa !10
  call void @llvm.lifetime.start.p0(i64 8, ptr %8) #12
  %13 = load ptr, ptr %5, align 8, !tbaa !3
  %14 = call ptr @Wlc_AbcGetNtk(ptr noundef %13)
  store ptr %14, ptr %8, align 8, !tbaa !12
  call void @llvm.lifetime.start.p0(i64 104, ptr %9) #12
  call void @llvm.lifetime.start.p0(i64 8, ptr %10) #12
  store ptr %9, ptr %10, align 8, !tbaa !43
  call void @llvm.lifetime.start.p0(i64 4, ptr %11) #12
  %15 = load ptr, ptr %10, align 8, !tbaa !43
  call void @Wlc_ManSetDefaultParams(ptr noundef %15)
  call void (...) @Extra_UtilGetoptReset()
  br label %16

16:                                               ; preds = %150, %3
  %17 = load i32, ptr %6, align 4, !tbaa !8
  %18 = load ptr, ptr %7, align 8, !tbaa !10
  %19 = call i32 @Extra_UtilGetopt(i32 noundef %17, ptr noundef %18, ptr noundef @.str.115)
  store i32 %19, ptr %11, align 4, !tbaa !8
  %20 = icmp ne i32 %19, -1
  br i1 %20, label %21, label %151

21:                                               ; preds = %16
  %22 = load i32, ptr %11, align 4, !tbaa !8
  switch i32 %22, label %149 [
    i32 65, label %23
    i32 77, label %45
    i32 88, label %67
    i32 70, label %89
    i32 73, label %111
    i32 120, label %133
    i32 118, label %138
    i32 119, label %143
    i32 104, label %148
  ]

23:                                               ; preds = %21
  %24 = load i32, ptr @globalUtilOptind, align 4, !tbaa !8
  %25 = load i32, ptr %6, align 4, !tbaa !8
  %26 = icmp sge i32 %24, %25
  br i1 %26, label %27, label %28

27:                                               ; preds = %23
  call void (i32, ptr, ...) @Abc_Print(i32 noundef -1, ptr noundef @.str.84)
  br label %159

28:                                               ; preds = %23
  %29 = load ptr, ptr %7, align 8, !tbaa !10
  %30 = load i32, ptr @globalUtilOptind, align 4, !tbaa !8
  %31 = sext i32 %30 to i64
  %32 = getelementptr inbounds ptr, ptr %29, i64 %31
  %33 = load ptr, ptr %32, align 8, !tbaa !14
  %34 = call i32 @atoi(ptr noundef %33) #13
  %35 = load ptr, ptr %10, align 8, !tbaa !43
  %36 = getelementptr inbounds nuw %struct.Wlc_Par_t_, ptr %35, i32 0, i32 0
  store i32 %34, ptr %36, align 8, !tbaa !45
  %37 = load i32, ptr @globalUtilOptind, align 4, !tbaa !8
  %38 = add nsw i32 %37, 1
  store i32 %38, ptr @globalUtilOptind, align 4, !tbaa !8
  %39 = load ptr, ptr %10, align 8, !tbaa !43
  %40 = getelementptr inbounds nuw %struct.Wlc_Par_t_, ptr %39, i32 0, i32 0
  %41 = load i32, ptr %40, align 8, !tbaa !45
  %42 = icmp slt i32 %41, 0
  br i1 %42, label %43, label %44

43:                                               ; preds = %28
  br label %159

44:                                               ; preds = %28
  br label %150

45:                                               ; preds = %21
  %46 = load i32, ptr @globalUtilOptind, align 4, !tbaa !8
  %47 = load i32, ptr %6, align 4, !tbaa !8
  %48 = icmp sge i32 %46, %47
  br i1 %48, label %49, label %50

49:                                               ; preds = %45
  call void (i32, ptr, ...) @Abc_Print(i32 noundef -1, ptr noundef @.str.85)
  br label %159

50:                                               ; preds = %45
  %51 = load ptr, ptr %7, align 8, !tbaa !10
  %52 = load i32, ptr @globalUtilOptind, align 4, !tbaa !8
  %53 = sext i32 %52 to i64
  %54 = getelementptr inbounds ptr, ptr %51, i64 %53
  %55 = load ptr, ptr %54, align 8, !tbaa !14
  %56 = call i32 @atoi(ptr noundef %55) #13
  %57 = load ptr, ptr %10, align 8, !tbaa !43
  %58 = getelementptr inbounds nuw %struct.Wlc_Par_t_, ptr %57, i32 0, i32 1
  store i32 %56, ptr %58, align 4, !tbaa !47
  %59 = load i32, ptr @globalUtilOptind, align 4, !tbaa !8
  %60 = add nsw i32 %59, 1
  store i32 %60, ptr @globalUtilOptind, align 4, !tbaa !8
  %61 = load ptr, ptr %10, align 8, !tbaa !43
  %62 = getelementptr inbounds nuw %struct.Wlc_Par_t_, ptr %61, i32 0, i32 1
  %63 = load i32, ptr %62, align 4, !tbaa !47
  %64 = icmp slt i32 %63, 0
  br i1 %64, label %65, label %66

65:                                               ; preds = %50
  br label %159

66:                                               ; preds = %50
  br label %150

67:                                               ; preds = %21
  %68 = load i32, ptr @globalUtilOptind, align 4, !tbaa !8
  %69 = load i32, ptr %6, align 4, !tbaa !8
  %70 = icmp sge i32 %68, %69
  br i1 %70, label %71, label %72

71:                                               ; preds = %67
  call void (i32, ptr, ...) @Abc_Print(i32 noundef -1, ptr noundef @.str.86)
  br label %159

72:                                               ; preds = %67
  %73 = load ptr, ptr %7, align 8, !tbaa !10
  %74 = load i32, ptr @globalUtilOptind, align 4, !tbaa !8
  %75 = sext i32 %74 to i64
  %76 = getelementptr inbounds ptr, ptr %73, i64 %75
  %77 = load ptr, ptr %76, align 8, !tbaa !14
  %78 = call i32 @atoi(ptr noundef %77) #13
  %79 = load ptr, ptr %10, align 8, !tbaa !43
  %80 = getelementptr inbounds nuw %struct.Wlc_Par_t_, ptr %79, i32 0, i32 2
  store i32 %78, ptr %80, align 8, !tbaa !48
  %81 = load i32, ptr @globalUtilOptind, align 4, !tbaa !8
  %82 = add nsw i32 %81, 1
  store i32 %82, ptr @globalUtilOptind, align 4, !tbaa !8
  %83 = load ptr, ptr %10, align 8, !tbaa !43
  %84 = getelementptr inbounds nuw %struct.Wlc_Par_t_, ptr %83, i32 0, i32 2
  %85 = load i32, ptr %84, align 8, !tbaa !48
  %86 = icmp slt i32 %85, 0
  br i1 %86, label %87, label %88

87:                                               ; preds = %72
  br label %159

88:                                               ; preds = %72
  br label %150

89:                                               ; preds = %21
  %90 = load i32, ptr @globalUtilOptind, align 4, !tbaa !8
  %91 = load i32, ptr %6, align 4, !tbaa !8
  %92 = icmp sge i32 %90, %91
  br i1 %92, label %93, label %94

93:                                               ; preds = %89
  call void (i32, ptr, ...) @Abc_Print(i32 noundef -1, ptr noundef @.str.87)
  br label %159

94:                                               ; preds = %89
  %95 = load ptr, ptr %7, align 8, !tbaa !10
  %96 = load i32, ptr @globalUtilOptind, align 4, !tbaa !8
  %97 = sext i32 %96 to i64
  %98 = getelementptr inbounds ptr, ptr %95, i64 %97
  %99 = load ptr, ptr %98, align 8, !tbaa !14
  %100 = call i32 @atoi(ptr noundef %99) #13
  %101 = load ptr, ptr %10, align 8, !tbaa !43
  %102 = getelementptr inbounds nuw %struct.Wlc_Par_t_, ptr %101, i32 0, i32 3
  store i32 %100, ptr %102, align 4, !tbaa !49
  %103 = load i32, ptr @globalUtilOptind, align 4, !tbaa !8
  %104 = add nsw i32 %103, 1
  store i32 %104, ptr @globalUtilOptind, align 4, !tbaa !8
  %105 = load ptr, ptr %10, align 8, !tbaa !43
  %106 = getelementptr inbounds nuw %struct.Wlc_Par_t_, ptr %105, i32 0, i32 3
  %107 = load i32, ptr %106, align 4, !tbaa !49
  %108 = icmp slt i32 %107, 0
  br i1 %108, label %109, label %110

109:                                              ; preds = %94
  br label %159

110:                                              ; preds = %94
  br label %150

111:                                              ; preds = %21
  %112 = load i32, ptr @globalUtilOptind, align 4, !tbaa !8
  %113 = load i32, ptr %6, align 4, !tbaa !8
  %114 = icmp sge i32 %112, %113
  br i1 %114, label %115, label %116

115:                                              ; preds = %111
  call void (i32, ptr, ...) @Abc_Print(i32 noundef -1, ptr noundef @.str.88)
  br label %159

116:                                              ; preds = %111
  %117 = load ptr, ptr %7, align 8, !tbaa !10
  %118 = load i32, ptr @globalUtilOptind, align 4, !tbaa !8
  %119 = sext i32 %118 to i64
  %120 = getelementptr inbounds ptr, ptr %117, i64 %119
  %121 = load ptr, ptr %120, align 8, !tbaa !14
  %122 = call i32 @atoi(ptr noundef %121) #13
  %123 = load ptr, ptr %10, align 8, !tbaa !43
  %124 = getelementptr inbounds nuw %struct.Wlc_Par_t_, ptr %123, i32 0, i32 4
  store i32 %122, ptr %124, align 8, !tbaa !50
  %125 = load i32, ptr @globalUtilOptind, align 4, !tbaa !8
  %126 = add nsw i32 %125, 1
  store i32 %126, ptr @globalUtilOptind, align 4, !tbaa !8
  %127 = load ptr, ptr %10, align 8, !tbaa !43
  %128 = getelementptr inbounds nuw %struct.Wlc_Par_t_, ptr %127, i32 0, i32 4
  %129 = load i32, ptr %128, align 8, !tbaa !50
  %130 = icmp slt i32 %129, 0
  br i1 %130, label %131, label %132

131:                                              ; preds = %116
  br label %159

132:                                              ; preds = %116
  br label %150

133:                                              ; preds = %21
  %134 = load ptr, ptr %10, align 8, !tbaa !43
  %135 = getelementptr inbounds nuw %struct.Wlc_Par_t_, ptr %134, i32 0, i32 6
  %136 = load i32, ptr %135, align 8, !tbaa !53
  %137 = xor i32 %136, 1
  store i32 %137, ptr %135, align 8, !tbaa !53
  br label %150

138:                                              ; preds = %21
  %139 = load ptr, ptr %10, align 8, !tbaa !43
  %140 = getelementptr inbounds nuw %struct.Wlc_Par_t_, ptr %139, i32 0, i32 20
  %141 = load i32, ptr %140, align 8, !tbaa !54
  %142 = xor i32 %141, 1
  store i32 %142, ptr %140, align 8, !tbaa !54
  br label %150

143:                                              ; preds = %21
  %144 = load ptr, ptr %10, align 8, !tbaa !43
  %145 = getelementptr inbounds nuw %struct.Wlc_Par_t_, ptr %144, i32 0, i32 21
  %146 = load i32, ptr %145, align 4, !tbaa !55
  %147 = xor i32 %146, 1
  store i32 %147, ptr %145, align 4, !tbaa !55
  br label %150

148:                                              ; preds = %21
  br label %159

149:                                              ; preds = %21
  br label %159

150:                                              ; preds = %143, %138, %133, %132, %110, %88, %66, %44
  br label %16, !llvm.loop !70

151:                                              ; preds = %16
  %152 = load ptr, ptr %8, align 8, !tbaa !12
  %153 = icmp eq ptr %152, null
  br i1 %153, label %154, label %155

154:                                              ; preds = %151
  call void (i32, ptr, ...) @Abc_Print(i32 noundef 1, ptr noundef @.str.72)
  store i32 0, ptr %4, align 4
  store i32 1, ptr %12, align 4
  br label %190

155:                                              ; preds = %151
  %156 = load ptr, ptr %8, align 8, !tbaa !12
  %157 = load ptr, ptr %10, align 8, !tbaa !43
  %158 = call i32 @Wlc_NtkAbsCore2(ptr noundef %156, ptr noundef %157)
  store i32 0, ptr %4, align 4
  store i32 1, ptr %12, align 4
  br label %190

159:                                              ; preds = %149, %148, %131, %115, %109, %93, %87, %71, %65, %49, %43, %27
  call void (i32, ptr, ...) @Abc_Print(i32 noundef -2, ptr noundef @.str.116)
  call void (i32, ptr, ...) @Abc_Print(i32 noundef -2, ptr noundef @.str.91)
  %160 = load ptr, ptr %10, align 8, !tbaa !43
  %161 = getelementptr inbounds nuw %struct.Wlc_Par_t_, ptr %160, i32 0, i32 0
  %162 = load i32, ptr %161, align 8, !tbaa !45
  call void (i32, ptr, ...) @Abc_Print(i32 noundef -2, ptr noundef @.str.92, i32 noundef %162)
  %163 = load ptr, ptr %10, align 8, !tbaa !43
  %164 = getelementptr inbounds nuw %struct.Wlc_Par_t_, ptr %163, i32 0, i32 1
  %165 = load i32, ptr %164, align 4, !tbaa !47
  call void (i32, ptr, ...) @Abc_Print(i32 noundef -2, ptr noundef @.str.93, i32 noundef %165)
  %166 = load ptr, ptr %10, align 8, !tbaa !43
  %167 = getelementptr inbounds nuw %struct.Wlc_Par_t_, ptr %166, i32 0, i32 2
  %168 = load i32, ptr %167, align 8, !tbaa !48
  call void (i32, ptr, ...) @Abc_Print(i32 noundef -2, ptr noundef @.str.94, i32 noundef %168)
  %169 = load ptr, ptr %10, align 8, !tbaa !43
  %170 = getelementptr inbounds nuw %struct.Wlc_Par_t_, ptr %169, i32 0, i32 3
  %171 = load i32, ptr %170, align 4, !tbaa !49
  call void (i32, ptr, ...) @Abc_Print(i32 noundef -2, ptr noundef @.str.95, i32 noundef %171)
  %172 = load ptr, ptr %10, align 8, !tbaa !43
  %173 = getelementptr inbounds nuw %struct.Wlc_Par_t_, ptr %172, i32 0, i32 4
  %174 = load i32, ptr %173, align 8, !tbaa !50
  call void (i32, ptr, ...) @Abc_Print(i32 noundef -2, ptr noundef @.str.96, i32 noundef %174)
  %175 = load ptr, ptr %10, align 8, !tbaa !43
  %176 = getelementptr inbounds nuw %struct.Wlc_Par_t_, ptr %175, i32 0, i32 6
  %177 = load i32, ptr %176, align 8, !tbaa !53
  %178 = icmp ne i32 %177, 0
  %179 = select i1 %178, ptr @.str.41, ptr @.str.42
  call void (i32, ptr, ...) @Abc_Print(i32 noundef -2, ptr noundef @.str.98, ptr noundef %179)
  %180 = load ptr, ptr %10, align 8, !tbaa !43
  %181 = getelementptr inbounds nuw %struct.Wlc_Par_t_, ptr %180, i32 0, i32 20
  %182 = load i32, ptr %181, align 8, !tbaa !54
  %183 = icmp ne i32 %182, 0
  %184 = select i1 %183, ptr @.str.41, ptr @.str.42
  call void (i32, ptr, ...) @Abc_Print(i32 noundef -2, ptr noundef @.str.45, ptr noundef %184)
  %185 = load ptr, ptr %10, align 8, !tbaa !43
  %186 = getelementptr inbounds nuw %struct.Wlc_Par_t_, ptr %185, i32 0, i32 21
  %187 = load i32, ptr %186, align 4, !tbaa !55
  %188 = icmp ne i32 %187, 0
  %189 = select i1 %188, ptr @.str.41, ptr @.str.42
  call void (i32, ptr, ...) @Abc_Print(i32 noundef -2, ptr noundef @.str.112, ptr noundef %189)
  call void (i32, ptr, ...) @Abc_Print(i32 noundef -2, ptr noundef @.str.46)
  store i32 1, ptr %4, align 4
  store i32 1, ptr %12, align 4
  br label %190

190:                                              ; preds = %159, %155, %154
  call void @llvm.lifetime.end.p0(i64 4, ptr %11) #12
  call void @llvm.lifetime.end.p0(i64 8, ptr %10) #12
  call void @llvm.lifetime.end.p0(i64 104, ptr %9) #12
  call void @llvm.lifetime.end.p0(i64 8, ptr %8) #12
  %191 = load i32, ptr %4, align 4
  ret i32 %191
}