; Function Attrs: nounwind uwtable
define internal range(i32 0, 2) i32 @Abc_CommandAbs2(ptr noundef readonly captures(none) %0, i32 noundef %1, ptr noundef %2) #0 {
  %4 = alloca %struct.Wlc_Par_t_, align 8
  %5 = getelementptr i8, ptr %0, i64 504
  %.val = load ptr, ptr %5, align 8, !tbaa !27
  call void @llvm.lifetime.start.p0(i64 104, ptr nonnull %4) #17
  call void @Wlc_ManSetDefaultParams(ptr noundef nonnull %4) #17
  call void (...) @Extra_UtilGetoptReset() #17
  %6 = getelementptr inbounds nuw i8, ptr %4, i64 84
  %7 = getelementptr inbounds nuw i8, ptr %4, i64 80
  %8 = getelementptr inbounds nuw i8, ptr %4, i64 24
  %9 = getelementptr inbounds nuw i8, ptr %4, i64 16
  %10 = getelementptr inbounds nuw i8, ptr %4, i64 12
  %11 = getelementptr inbounds nuw i8, ptr %4, i64 8
  %12 = getelementptr inbounds nuw i8, ptr %4, i64 4
  br label %13

13:                                               ; preds = %.backedge, %3
  %14 = call i32 @Extra_UtilGetopt(i32 noundef %1, ptr noundef %2, ptr noundef nonnull @.str.115) #17
  switch i32 %14, label %.loopexit [
    i32 -1, label %79
    i32 65, label %15
    i32 77, label %26
    i32 88, label %37
    i32 70, label %48
    i32 73, label %59
    i32 120, label %70
    i32 118, label %73
    i32 119, label %76
  ]

15:                                               ; preds = %13
  %16 = load i32, ptr @globalUtilOptind, align 4, !tbaa !5
  %.not50 = icmp slt i32 %16, %1
  br i1 %.not50, label %17, label %.loopexit.sink.split

17:                                               ; preds = %15
  %18 = sext i32 %16 to i64
  %19 = getelementptr inbounds ptr, ptr %2, i64 %18
  %20 = load ptr, ptr %19, align 8, !tbaa !9
  %21 = call i64 @strtol(ptr noundef nonnull captures(none) %20, ptr noundef null, i32 noundef 10) #17
  %22 = trunc i64 %21 to i32
  store i32 %22, ptr %4, align 8, !tbaa !38
  %23 = load i32, ptr @globalUtilOptind, align 4, !tbaa !5
  %24 = add nsw i32 %23, 1
  store i32 %24, ptr @globalUtilOptind, align 4, !tbaa !5
  %25 = icmp slt i32 %22, 0
  br i1 %25, label %.loopexit, label %.backedge

26:                                               ; preds = %13
  %27 = load i32, ptr @globalUtilOptind, align 4, !tbaa !5
  %.not49 = icmp slt i32 %27, %1
  br i1 %.not49, label %28, label %.loopexit.sink.split

28:                                               ; preds = %26
  %29 = sext i32 %27 to i64
  %30 = getelementptr inbounds ptr, ptr %2, i64 %29
  %31 = load ptr, ptr %30, align 8, !tbaa !9
  %32 = call i64 @strtol(ptr noundef nonnull captures(none) %31, ptr noundef null, i32 noundef 10) #17
  %33 = trunc i64 %32 to i32
  store i32 %33, ptr %12, align 4, !tbaa !40
  %34 = load i32, ptr @globalUtilOptind, align 4, !tbaa !5
  %35 = add nsw i32 %34, 1
  store i32 %35, ptr @globalUtilOptind, align 4, !tbaa !5
  %36 = icmp slt i32 %33, 0
  br i1 %36, label %.loopexit, label %.backedge

37:                                               ; preds = %13
  %38 = load i32, ptr @globalUtilOptind, align 4, !tbaa !5
  %.not48 = icmp slt i32 %38, %1
  br i1 %.not48, label %39, label %.loopexit.sink.split

39:                                               ; preds = %37
  %40 = sext i32 %38 to i64
  %41 = getelementptr inbounds ptr, ptr %2, i64 %40
  %42 = load ptr, ptr %41, align 8, !tbaa !9
  %43 = call i64 @strtol(ptr noundef nonnull captures(none) %42, ptr noundef null, i32 noundef 10) #17
  %44 = trunc i64 %43 to i32
  store i32 %44, ptr %11, align 8, !tbaa !41
  %45 = load i32, ptr @globalUtilOptind, align 4, !tbaa !5
  %46 = add nsw i32 %45, 1
  store i32 %46, ptr @globalUtilOptind, align 4, !tbaa !5
  %47 = icmp slt i32 %44, 0
  br i1 %47, label %.loopexit, label %.backedge

48:                                               ; preds = %13
  %49 = load i32, ptr @globalUtilOptind, align 4, !tbaa !5
  %.not47 = icmp slt i32 %49, %1
  br i1 %.not47, label %50, label %.loopexit.sink.split

50:                                               ; preds = %48
  %51 = sext i32 %49 to i64
  %52 = getelementptr inbounds ptr, ptr %2, i64 %51
  %53 = load ptr, ptr %52, align 8, !tbaa !9
  %54 = call i64 @strtol(ptr noundef nonnull captures(none) %53, ptr noundef null, i32 noundef 10) #17
  %55 = trunc i64 %54 to i32
  store i32 %55, ptr %10, align 4, !tbaa !42
  %56 = load i32, ptr @globalUtilOptind, align 4, !tbaa !5
  %57 = add nsw i32 %56, 1
  store i32 %57, ptr @globalUtilOptind, align 4, !tbaa !5
  %58 = icmp slt i32 %55, 0
  br i1 %58, label %.loopexit, label %.backedge

59:                                               ; preds = %13
  %60 = load i32, ptr @globalUtilOptind, align 4, !tbaa !5
  %.not46 = icmp slt i32 %60, %1
  br i1 %.not46, label %61, label %.loopexit.sink.split

61:                                               ; preds = %59
  %62 = sext i32 %60 to i64
  %63 = getelementptr inbounds ptr, ptr %2, i64 %62
  %64 = load ptr, ptr %63, align 8, !tbaa !9
  %65 = call i64 @strtol(ptr noundef nonnull captures(none) %64, ptr noundef null, i32 noundef 10) #17
  %66 = trunc i64 %65 to i32
  store i32 %66, ptr %9, align 8, !tbaa !43
  %67 = load i32, ptr @globalUtilOptind, align 4, !tbaa !5
  %68 = add nsw i32 %67, 1
  store i32 %68, ptr @globalUtilOptind, align 4, !tbaa !5
  %69 = icmp slt i32 %66, 0
  br i1 %69, label %.loopexit, label %.backedge

.backedge:                                        ; preds = %61, %50, %39, %28, %17, %76, %73, %70
  br label %13, !llvm.loop !63

70:                                               ; preds = %13
  %71 = load i32, ptr %8, align 8, !tbaa !47
  %72 = xor i32 %71, 1
  store i32 %72, ptr %8, align 8, !tbaa !47
  br label %.backedge

73:                                               ; preds = %13
  %74 = load i32, ptr %7, align 8, !tbaa !48
  %75 = xor i32 %74, 1
  store i32 %75, ptr %7, align 8, !tbaa !48
  br label %.backedge

76:                                               ; preds = %13
  %77 = load i32, ptr %6, align 4, !tbaa !49
  %78 = xor i32 %77, 1
  store i32 %78, ptr %6, align 4, !tbaa !49
  br label %.backedge

79:                                               ; preds = %13
  %80 = icmp eq ptr %.val, null
  br i1 %80, label %81, label %82

81:                                               ; preds = %79
  call void (i32, ptr, ...) @Abc_Print(i32 noundef 1, ptr noundef nonnull @.str.72)
  br label %95

82:                                               ; preds = %79
  %83 = call i32 @Wlc_NtkAbsCore2(ptr noundef nonnull %.val, ptr noundef nonnull %4) #17
  br label %95

.loopexit.sink.split:                             ; preds = %59, %48, %37, %26, %15
  %.str.88.sink = phi ptr [ @.str.84, %15 ], [ @.str.85, %26 ], [ @.str.86, %37 ], [ @.str.87, %48 ], [ @.str.88, %59 ]
  call void (i32, ptr, ...) @Abc_Print(i32 noundef -1, ptr noundef nonnull %.str.88.sink)
  br label %.loopexit

.loopexit:                                        ; preds = %13, %61, %50, %39, %28, %17, %.loopexit.sink.split
  call void (i32, ptr, ...) @Abc_Print(i32 noundef -2, ptr noundef nonnull @.str.116)
  call void (i32, ptr, ...) @Abc_Print(i32 noundef -2, ptr noundef nonnull @.str.91)
  %84 = load i32, ptr %4, align 8, !tbaa !38
  call void (i32, ptr, ...) @Abc_Print(i32 noundef -2, ptr noundef nonnull @.str.92, i32 noundef %84)
  %85 = load i32, ptr %12, align 4, !tbaa !40
  call void (i32, ptr, ...) @Abc_Print(i32 noundef -2, ptr noundef nonnull @.str.93, i32 noundef %85)
  %86 = load i32, ptr %11, align 8, !tbaa !41
  call void (i32, ptr, ...) @Abc_Print(i32 noundef -2, ptr noundef nonnull @.str.94, i32 noundef %86)
  %87 = load i32, ptr %10, align 4, !tbaa !42
  call void (i32, ptr, ...) @Abc_Print(i32 noundef -2, ptr noundef nonnull @.str.95, i32 noundef %87)
  %88 = load i32, ptr %9, align 8, !tbaa !43
  call void (i32, ptr, ...) @Abc_Print(i32 noundef -2, ptr noundef nonnull @.str.96, i32 noundef %88)
  %89 = load i32, ptr %8, align 8, !tbaa !47
  %.not51 = icmp eq i32 %89, 0
  %90 = select i1 %.not51, ptr @.str.42, ptr @.str.41
  call void (i32, ptr, ...) @Abc_Print(i32 noundef -2, ptr noundef nonnull @.str.98, ptr noundef nonnull %90)
  %91 = load i32, ptr %7, align 8, !tbaa !48
  %.not52 = icmp eq i32 %91, 0
  %92 = select i1 %.not52, ptr @.str.42, ptr @.str.41
  call void (i32, ptr, ...) @Abc_Print(i32 noundef -2, ptr noundef nonnull @.str.45, ptr noundef nonnull %92)
  %93 = load i32, ptr %6, align 4, !tbaa !49
  %.not53 = icmp eq i32 %93, 0
  %94 = select i1 %.not53, ptr @.str.42, ptr @.str.41
  call void (i32, ptr, ...) @Abc_Print(i32 noundef -2, ptr noundef nonnull @.str.112, ptr noundef nonnull %94)
  call void (i32, ptr, ...) @Abc_Print(i32 noundef -2, ptr noundef nonnull @.str.46)
  br label %95

95:                                               ; preds = %.loopexit, %82, %81
  %.0 = phi i32 [ 1, %.loopexit ], [ 0, %81 ], [ 0, %82 ]
  call void @llvm.lifetime.end.p0(i64 104, ptr nonnull %4) #17
  ret i32 %.0
}